   1              		.syntax unified
   2              		.cpu cortex-m3
   3              		.fpu softvfp
   4              		.eabi_attribute 20, 1	@ Tag_ABI_FP_denormal
   5              		.eabi_attribute 21, 1	@ Tag_ABI_FP_exceptions
   6              		.eabi_attribute 23, 3	@ Tag_ABI_FP_number_model
   7              		.eabi_attribute 24, 1	@ Tag_ABI_align8_needed
   8              		.eabi_attribute 25, 1	@ Tag_ABI_align8_preserved
   9              		.eabi_attribute 26, 1	@ Tag_ABI_enum_size
  10              		.eabi_attribute 30, 2	@ Tag_ABI_optimization_goals
  11              		.eabi_attribute 34, 1	@ Tag_CPU_unaligned_access
  12              		.eabi_attribute 18, 4	@ Tag_ABI_PCS_wchar_t
  13              		.file	"config.c"
  14              	@ GNU C (GNU Tools for ARM Embedded Processors) version 4.8.3 20131129 (release) [ARM/embedded-4_8-
  15              	@	compiled by GNU C version 4.2.1-sjlj (mingw32-2), GMP version 4.3.2, MPFR version 2.4.2, MPC vers
  16              	@ GGC heuristics: --param ggc-min-expand=100 --param ggc-min-heapsize=131072
  17              	@ options passed: 
  18              	@ -I C:\Program Files (x86)\GNU Tools ARM Embedded\4.8 2013q4/arm-none-eabi/include
  19              	@ -I C:\Program Files (x86)\GNU Tools ARM Embedded\4.8 2013q4/lib/gcc/arm-none-eabi/4.8.3/include
  20              	@ -I C:\Program Files (x86)\GNU Tools ARM Embedded\4.8 2013q4/lib/gcc/arm-none-eabi/4.8.3/include-f
  21              	@ -I C:\Users\Chris\workspace\Firmware-master\Libraries\CMSIS\Include
  22              	@ -I C:\Users\Chris\workspace\Firmware-master\Libraries\CMSIS\Device\ST\STM32F10x\Include
  23              	@ -I C:\Users\Chris\workspace\Firmware-master\Libraries\STM32_USB-FS-Device_Driver\inc
  24              	@ -I C:\Users\Chris\workspace\Firmware-master\Libraries\STM32F10x_StdPeriph_Driver\inc
  25              	@ -I C:\Users\Chris\workspace\Firmware-master\src
  26              	@ -I C:\Users\Chris\workspace\Firmware-master\src\VCP\inc
  27              	@ -imultilib armv7-m
  28              	@ -iprefix c:\program files (x86)\gnu tools arm embedded\4.8 2013q4\bin\../lib/gcc/arm-none-eabi/4.
  29              	@ -isysroot c:\program files (x86)\gnu tools arm embedded\4.8 2013q4\bin\../arm-none-eabi
  30              	@ -MMD src/config.d -MF src/config.d -MP -MT src/config.d
  31              	@ -D__USES_INITFINI__ -D STM32F10X_HD -D USE_STDPERIPH_DRIVER
  32              	@ ../src/config.c -mcpu=cortex-m3 -mthumb -auxbase-strip src/config.o -O2
  33              	@ -Wall -Wextra -Wstrict-prototypes -std=gnu99 -ffunction-sections
  34              	@ -fdata-sections -fsingle-precision-constant -fverbose-asm
  35              	@ options enabled:  -faggressive-loop-optimizations -fauto-inc-dec
  36              	@ -fbranch-count-reg -fcaller-saves -fcombine-stack-adjustments -fcommon
  37              	@ -fcompare-elim -fcprop-registers -fcrossjumping -fcse-follow-jumps
  38              	@ -fdata-sections -fdefer-pop -fdelete-null-pointer-checks -fdevirtualize
  39              	@ -fdwarf2-cfi-asm -fearly-inlining -feliminate-unused-debug-types
  40              	@ -fexpensive-optimizations -fforward-propagate -ffunction-cse
  41              	@ -ffunction-sections -fgcse -fgcse-lm -fgnu-runtime
  42              	@ -fguess-branch-probability -fhoist-adjacent-loads -fident -fif-conversion
  43              	@ -fif-conversion2 -findirect-inlining -finline -finline-atomics
  44              	@ -finline-functions-called-once -finline-small-functions -fipa-cp
  45              	@ -fipa-profile -fipa-pure-const -fipa-reference -fipa-sra
  46              	@ -fira-hoist-pressure -fira-share-save-slots -fira-share-spill-slots
  47              	@ -fivopts -fkeep-static-consts -fleading-underscore -fmath-errno
  48              	@ -fmerge-constants -fmerge-debug-strings -fmove-loop-invariants
  49              	@ -fomit-frame-pointer -foptimize-register-move -foptimize-sibling-calls
  50              	@ -foptimize-strlen -fpartial-inlining -fpeephole -fpeephole2
  51              	@ -fprefetch-loop-arrays -freg-struct-return -fregmove -freorder-blocks
  52              	@ -freorder-functions -frerun-cse-after-loop
  53              	@ -fsched-critical-path-heuristic -fsched-dep-count-heuristic
  54              	@ -fsched-group-heuristic -fsched-interblock -fsched-last-insn-heuristic
  55              	@ -fsched-pressure -fsched-rank-heuristic -fsched-spec
  56              	@ -fsched-spec-insn-heuristic -fsched-stalled-insns-dep -fschedule-insns
  57              	@ -fschedule-insns2 -fsection-anchors -fshow-column -fshrink-wrap
  58              	@ -fsigned-zeros -fsingle-precision-constant -fsplit-ivs-in-unroller
  59              	@ -fsplit-wide-types -fstrict-aliasing -fstrict-overflow
  60              	@ -fstrict-volatile-bitfields -fsync-libcalls -fthread-jumps
  61              	@ -ftoplevel-reorder -ftrapping-math -ftree-bit-ccp -ftree-builtin-call-dce
  62              	@ -ftree-ccp -ftree-ch -ftree-coalesce-vars -ftree-copy-prop
  63              	@ -ftree-copyrename -ftree-cselim -ftree-dce -ftree-dominator-opts
  64              	@ -ftree-dse -ftree-forwprop -ftree-fre -ftree-loop-if-convert
  65              	@ -ftree-loop-im -ftree-loop-ivcanon -ftree-loop-optimize
  66              	@ -ftree-parallelize-loops= -ftree-phiprop -ftree-pre -ftree-pta
  67              	@ -ftree-reassoc -ftree-scev-cprop -ftree-sink -ftree-slp-vectorize
  68              	@ -ftree-slsr -ftree-sra -ftree-switch-conversion -ftree-tail-merge
  69              	@ -ftree-ter -ftree-vect-loop-version -ftree-vrp -funit-at-a-time
  70              	@ -fverbose-asm -fzero-initialized-in-bss -mfix-cortex-m3-ldrd
  71              	@ -mlittle-endian -mpic-data-is-text-relative -msched-prolog -mthumb
  72              	@ -munaligned-access -mvectorize-with-neon-quad
  73              	
  74              		.section	.text.configLoad,"ax",%progbits
  75              		.align	2
  76              		.global	configLoad
  77              		.thumb
  78              		.thumb_func
  80              	configLoad:
  81              		@ args = 0, pretend = 0, frame = 0
  82              		@ frame_needed = 0, uses_anonymous_args = 0
  83 0000 38B5     		push	{r3, r4, r5, lr}	@
  84 0002 084D     		ldr	r5, .L6	@ tmp160,
  85 0004 0024     		movs	r4, #0	@ i,
  86              	.L4:
  87 0006 E0B2     		uxtb	r0, r4	@, i
  88 0008 FFF7FEFF 		bl	ReadFromEEPROM	@
  89 000c 0346     		mov	r3, r0	@ data,
  90 000e FE2B     		cmp	r3, #254	@ data,
  91 0010 98BF     		it	ls
  92 0012 6355     		strbls	r3, [r4, r5]	@ data, MEM[symbol: configData, index: _13, offset: 0B]
  93 0014 0520     		movs	r0, #5	@,
  94 0016 0134     		adds	r4, r4, #1	@ i, i,
  95 0018 FFF7FEFF 		bl	Delay_ms	@
  96 001c 0C2C     		cmp	r4, #12	@ i,
  97 001e F2D1     		bne	.L4	@,
  98 0020 38BD     		pop	{r3, r4, r5, pc}	@
  99              	.L7:
 100 0022 00BF     		.align	2
 101              	.L6:
 102 0024 00000000 		.word	.LANCHOR0
 104              		.section	.text.configSave,"ax",%progbits
 105              		.align	2
 106              		.global	configSave
 107              		.thumb
 108              		.thumb_func
 110              	configSave:
 111              		@ args = 0, pretend = 0, frame = 0
 112              		@ frame_needed = 0, uses_anonymous_args = 0
 113 0000 70B5     		push	{r4, r5, r6, lr}	@
 114 0002 FFF7FEFF 		bl	LEDon	@
 115 0006 0C4E     		ldr	r6, .L15	@ tmp138,
 116 0008 0024     		movs	r4, #0	@ ivtmp.18,
 117              	.L11:
 118 000a E5B2     		uxtb	r5, r4	@ i, ivtmp.18
 119 000c 2846     		mov	r0, r5	@, i
 120 000e FFF7FEFF 		bl	ReadFromEEPROM	@
 121 0012 421C     		adds	r2, r0, #1	@, data,
 122 0014 0346     		mov	r3, r0	@ data,
 123 0016 05D0     		beq	.L9	@,
 124 0018 A15D     		ldrb	r1, [r4, r6]	@ zero_extendqisi2	@ D.4215, MEM[symbol: configData, index: ivtmp.18_15, offset:
 125 001a 2846     		mov	r0, r5	@, i
 126 001c 9942     		cmp	r1, r3	@ D.4215, data
 127 001e 01D0     		beq	.L9	@,
 128 0020 FFF7FEFF 		bl	WriteToEEPROM	@
 129              	.L9:
 130 0024 0134     		adds	r4, r4, #1	@ ivtmp.18, ivtmp.18,
 131 0026 0520     		movs	r0, #5	@,
 132 0028 FFF7FEFF 		bl	Delay_ms	@
 133 002c 0C2C     		cmp	r4, #12	@ ivtmp.18,
 134 002e ECD1     		bne	.L11	@,
 135 0030 BDE87040 		pop	{r4, r5, r6, lr}	@
 136 0034 FFF7FEBF 		b	LEDoff	@
 137              	.L16:
 138              		.align	2
 139              	.L15:
 140 0038 00000000 		.word	.LANCHOR0
 142              		.section	.text.printConfig,"ax",%progbits
 143              		.align	2
 144              		.global	printConfig
 145              		.thumb
 146              		.thumb_func
 148              	printConfig:
 149              		@ args = 0, pretend = 0, frame = 0
 150              		@ frame_needed = 0, uses_anonymous_args = 0
 151 0000 38B5     		push	{r3, r4, r5, lr}	@
 152 0002 0948     		ldr	r0, .L20	@,
 153 0004 FFF7FEFF 		bl	print	@
 154 0008 084C     		ldr	r4, .L20+4	@ ivtmp.34,
 155 000a 04F10C05 		add	r5, r4, #12	@ D.4234, ivtmp.34,
 156              	.L19:
 157 000e 14F8011F 		ldrb	r1, [r4, #1]!	@ zero_extendqisi2	@, MEM[base: _15, offset: 0B]
 158 0012 0748     		ldr	r0, .L20+8	@,
 159 0014 FFF7FEFF 		bl	print	@
 160 0018 AC42     		cmp	r4, r5	@ ivtmp.34, D.4234
 161 001a F8D1     		bne	.L19	@,
 162 001c 0548     		ldr	r0, .L20+12	@,
 163 001e BDE83840 		pop	{r3, r4, r5, lr}	@
 164 0022 FFF7FEBF 		b	print	@
 165              	.L21:
 166 0026 00BF     		.align	2
 167              	.L20:
 168 0028 00000000 		.word	.LC0
 169 002c FFFFFFFF 		.word	.LANCHOR0-1
 170 0030 10000000 		.word	.LC1
 171 0034 18000000 		.word	.LC2
 173              		.global	configData
 174              		.section	.data.configData,"aw",%progbits
 175              		.align	2
 176              		.set	.LANCHOR0,. + 0
 179              	configData:
 180 0000 28       		.byte	40
 181 0001 55       		.byte	85
 182 0002 3C       		.byte	60
 183 0003 1E       		.byte	30
 184 0004 37       		.byte	55
 185 0005 28       		.byte	40
 186 0006 23       		.byte	35
 187 0007 37       		.byte	55
 188 0008 3C       		.byte	60
 189 0009 30       		.byte	48
 190 000a 30       		.byte	48
 191 000b 40       		.byte	64
 192              		.section	.rodata.str1.4,"aMS",%progbits,1
 193              		.align	2
 194              	.LC0:
 195 0000 0D0A636F 		.ascii	"\015\012config data: \000"
 195      6E666967 
 195      20646174 
 195      613A2000 
 196              	.LC1:
 197 0010 20253032 		.ascii	" %02X \000"
 197      582000
 198 0017 00       		.space	1
 199              	.LC2:
 200 0018 0D0A00   		.ascii	"\015\012\000"
 201 001b 00       		.ident	"GCC: (GNU Tools for ARM Embedded Processors) 4.8.3 20131129 (release) [ARM/embedded-4_8-br