   1              		.syntax unified
   2              		.cpu cortex-m3
   3              		.fpu softvfp
   4              		.eabi_attribute 20, 1	@ Tag_ABI_FP_denormal
   5              		.eabi_attribute 21, 1	@ Tag_ABI_FP_exceptions
   6              		.eabi_attribute 23, 3	@ Tag_ABI_FP_number_model
   7              		.eabi_attribute 24, 1	@ Tag_ABI_align8_needed
   8              		.eabi_attribute 25, 1	@ Tag_ABI_align8_preserved
   9              		.eabi_attribute 26, 1	@ Tag_ABI_enum_size
  10              		.eabi_attribute 30, 2	@ Tag_ABI_optimization_goals
  11              		.eabi_attribute 34, 1	@ Tag_CPU_unaligned_access
  12              		.eabi_attribute 18, 4	@ Tag_ABI_PCS_wchar_t
  13              		.file	"utils.c"
  14              	@ GNU C (GNU Tools for ARM Embedded Processors) version 4.8.3 20131129 (release) [ARM/embedded-4_8-
  15              	@	compiled by GNU C version 4.2.1-sjlj (mingw32-2), GMP version 4.3.2, MPFR version 2.4.2, MPC vers
  16              	@ GGC heuristics: --param ggc-min-expand=100 --param ggc-min-heapsize=131072
  17              	@ options passed: 
  18              	@ -I C:\Program Files (x86)\GNU Tools ARM Embedded\4.8 2013q4/arm-none-eabi/include
  19              	@ -I C:\Program Files (x86)\GNU Tools ARM Embedded\4.8 2013q4/lib/gcc/arm-none-eabi/4.8.3/include
  20              	@ -I C:\Program Files (x86)\GNU Tools ARM Embedded\4.8 2013q4/lib/gcc/arm-none-eabi/4.8.3/include-f
  21              	@ -I C:\Users\Chris\workspace\Firmware-master\Libraries\CMSIS\Include
  22              	@ -I C:\Users\Chris\workspace\Firmware-master\Libraries\CMSIS\Device\ST\STM32F10x\Include
  23              	@ -I C:\Users\Chris\workspace\Firmware-master\Libraries\STM32_USB-FS-Device_Driver\inc
  24              	@ -I C:\Users\Chris\workspace\Firmware-master\Libraries\STM32F10x_StdPeriph_Driver\inc
  25              	@ -I C:\Users\Chris\workspace\Firmware-master\src
  26              	@ -I C:\Users\Chris\workspace\Firmware-master\src\VCP\inc
  27              	@ -imultilib armv7-m
  28              	@ -iprefix c:\program files (x86)\gnu tools arm embedded\4.8 2013q4\bin\../lib/gcc/arm-none-eabi/4.
  29              	@ -isysroot c:\program files (x86)\gnu tools arm embedded\4.8 2013q4\bin\../arm-none-eabi
  30              	@ -MMD src/utils.d -MF src/utils.d -MP -MT src/utils.d -D__USES_INITFINI__
  31              	@ -D STM32F10X_HD -D USE_STDPERIPH_DRIVER ../src/utils.c -mcpu=cortex-m3
  32              	@ -mthumb -auxbase-strip src/utils.o -O2 -Wall -Wextra -Wstrict-prototypes
  33              	@ -std=gnu99 -ffunction-sections -fdata-sections
  34              	@ -fsingle-precision-constant -fverbose-asm
  35              	@ options enabled:  -faggressive-loop-optimizations -fauto-inc-dec
  36              	@ -fbranch-count-reg -fcaller-saves -fcombine-stack-adjustments -fcommon
  37              	@ -fcompare-elim -fcprop-registers -fcrossjumping -fcse-follow-jumps
  38              	@ -fdata-sections -fdefer-pop -fdelete-null-pointer-checks -fdevirtualize
  39              	@ -fdwarf2-cfi-asm -fearly-inlining -feliminate-unused-debug-types
  40              	@ -fexpensive-optimizations -fforward-propagate -ffunction-cse
  41              	@ -ffunction-sections -fgcse -fgcse-lm -fgnu-runtime
  42              	@ -fguess-branch-probability -fhoist-adjacent-loads -fident -fif-conversion
  43              	@ -fif-conversion2 -findirect-inlining -finline -finline-atomics
  44              	@ -finline-functions-called-once -finline-small-functions -fipa-cp
  45              	@ -fipa-profile -fipa-pure-const -fipa-reference -fipa-sra
  46              	@ -fira-hoist-pressure -fira-share-save-slots -fira-share-spill-slots
  47              	@ -fivopts -fkeep-static-consts -fleading-underscore -fmath-errno
  48              	@ -fmerge-constants -fmerge-debug-strings -fmove-loop-invariants
  49              	@ -fomit-frame-pointer -foptimize-register-move -foptimize-sibling-calls
  50              	@ -foptimize-strlen -fpartial-inlining -fpeephole -fpeephole2
  51              	@ -fprefetch-loop-arrays -freg-struct-return -fregmove -freorder-blocks
  52              	@ -freorder-functions -frerun-cse-after-loop
  53              	@ -fsched-critical-path-heuristic -fsched-dep-count-heuristic
  54              	@ -fsched-group-heuristic -fsched-interblock -fsched-last-insn-heuristic
  55              	@ -fsched-pressure -fsched-rank-heuristic -fsched-spec
  56              	@ -fsched-spec-insn-heuristic -fsched-stalled-insns-dep -fschedule-insns
  57              	@ -fschedule-insns2 -fsection-anchors -fshow-column -fshrink-wrap
  58              	@ -fsigned-zeros -fsingle-precision-constant -fsplit-ivs-in-unroller
  59              	@ -fsplit-wide-types -fstrict-aliasing -fstrict-overflow
  60              	@ -fstrict-volatile-bitfields -fsync-libcalls -fthread-jumps
  61              	@ -ftoplevel-reorder -ftrapping-math -ftree-bit-ccp -ftree-builtin-call-dce
  62              	@ -ftree-ccp -ftree-ch -ftree-coalesce-vars -ftree-copy-prop
  63              	@ -ftree-copyrename -ftree-cselim -ftree-dce -ftree-dominator-opts
  64              	@ -ftree-dse -ftree-forwprop -ftree-fre -ftree-loop-if-convert
  65              	@ -ftree-loop-im -ftree-loop-ivcanon -ftree-loop-optimize
  66              	@ -ftree-parallelize-loops= -ftree-phiprop -ftree-pre -ftree-pta
  67              	@ -ftree-reassoc -ftree-scev-cprop -ftree-sink -ftree-slp-vectorize
  68              	@ -ftree-slsr -ftree-sra -ftree-switch-conversion -ftree-tail-merge
  69              	@ -ftree-ter -ftree-vect-loop-version -ftree-vrp -funit-at-a-time
  70              	@ -fverbose-asm -fzero-initialized-in-bss -mfix-cortex-m3-ldrd
  71              	@ -mlittle-endian -mpic-data-is-text-relative -msched-prolog -mthumb
  72              	@ -munaligned-access -mvectorize-with-neon-quad
  73              	
  74              		.section	.text.LEDon,"ax",%progbits
  75              		.align	2
  76              		.global	LEDon
  77              		.thumb
  78              		.thumb_func
  80              	LEDon:
  81              		@ args = 0, pretend = 0, frame = 0
  82              		@ frame_needed = 0, uses_anonymous_args = 0
  83              		@ link register save eliminated.
  84 0000 0248     		ldr	r0, .L2	@,
  85 0002 4FF48051 		mov	r1, #4096	@,
  86 0006 FFF7FEBF 		b	GPIO_SetBits	@
  87              	.L3:
  88 000a 00BF     		.align	2
  89              	.L2:
  90 000c 000C0140 		.word	1073810432
  92              		.section	.text.LEDoff,"ax",%progbits
  93              		.align	2
  94              		.global	LEDoff
  95              		.thumb
  96              		.thumb_func
  98              	LEDoff:
  99              		@ args = 0, pretend = 0, frame = 0
 100              		@ frame_needed = 0, uses_anonymous_args = 0
 101              		@ link register save eliminated.
 102 0000 0248     		ldr	r0, .L5	@,
 103 0002 4FF48051 		mov	r1, #4096	@,
 104 0006 FFF7FEBF 		b	GPIO_ResetBits	@
 105              	.L6:
 106 000a 00BF     		.align	2
 107              	.L5:
 108 000c 000C0140 		.word	1073810432
 110              		.section	.text.LEDtoggle,"ax",%progbits
 111              		.align	2
 112              		.global	LEDtoggle
 113              		.thumb
 114              		.thumb_func
 116              	LEDtoggle:
 117              		@ args = 0, pretend = 0, frame = 0
 118              		@ frame_needed = 0, uses_anonymous_args = 0
 119 0000 08B5     		push	{r3, lr}	@
 120              	@ 342 "C:\Users\Chris\workspace\Firmware-master\Libraries\CMSIS\Include/core_cmFunc.h" 1
 121 0002 72B6     		cpsid i
 122              	@ 0 "" 2
 123              		.thumb
 124 0004 0348     		ldr	r0, .L8	@,
 125 0006 4FF48051 		mov	r1, #4096	@,
 126 000a FFF7FEFF 		bl	GPIO_ToggleBits	@
 127              	@ 331 "C:\Users\Chris\workspace\Firmware-master\Libraries\CMSIS\Include/core_cmFunc.h" 1
 128 000e 62B6     		cpsie i
 129              	@ 0 "" 2
 130              		.thumb
 131 0010 08BD     		pop	{r3, pc}	@
 132              	.L9:
 133 0012 00BF     		.align	2
 134              	.L8:
 135 0014 000C0140 		.word	1073810432
 137              		.section	.text.DEBUG_LEDon,"ax",%progbits
 138              		.align	2
 139              		.global	DEBUG_LEDon
 140              		.thumb
 141              		.thumb_func
 143              	DEBUG_LEDon:
 144              		@ args = 0, pretend = 0, frame = 0
 145              		@ frame_needed = 0, uses_anonymous_args = 0
 146              		@ link register save eliminated.
 147 0000 0148     		ldr	r0, .L11	@,
 148 0002 0821     		movs	r1, #8	@,
 149 0004 FFF7FEBF 		b	GPIO_SetBits	@
 150              	.L12:
 151              		.align	2
 152              	.L11:
 153 0008 00080140 		.word	1073809408
 155              		.section	.text.DEBUG_LEDoff,"ax",%progbits
 156              		.align	2
 157              		.global	DEBUG_LEDoff
 158              		.thumb
 159              		.thumb_func
 161              	DEBUG_LEDoff:
 162              		@ args = 0, pretend = 0, frame = 0
 163              		@ frame_needed = 0, uses_anonymous_args = 0
 164              		@ link register save eliminated.
 165 0000 0148     		ldr	r0, .L14	@,
 166 0002 0821     		movs	r1, #8	@,
 167 0004 FFF7FEBF 		b	GPIO_ResetBits	@
 168              	.L15:
 169              		.align	2
 170              	.L14:
 171 0008 00080140 		.word	1073809408
 173              		.section	.text.DEBUG_LEDtoggle,"ax",%progbits
 174              		.align	2
 175              		.global	DEBUG_LEDtoggle
 176              		.thumb
 177              		.thumb_func
 179              	DEBUG_LEDtoggle:
 180              		@ args = 0, pretend = 0, frame = 0
 181              		@ frame_needed = 0, uses_anonymous_args = 0
 182 0000 08B5     		push	{r3, lr}	@
 183              	@ 342 "C:\Users\Chris\workspace\Firmware-master\Libraries\CMSIS\Include/core_cmFunc.h" 1
 184 0002 72B6     		cpsid i
 185              	@ 0 "" 2
 186              		.thumb
 187 0004 0248     		ldr	r0, .L17	@,
 188 0006 0821     		movs	r1, #8	@,
 189 0008 FFF7FEFF 		bl	GPIO_ToggleBits	@
 190              	@ 331 "C:\Users\Chris\workspace\Firmware-master\Libraries\CMSIS\Include/core_cmFunc.h" 1
 191 000c 62B6     		cpsie i
 192              	@ 0 "" 2
 193              		.thumb
 194 000e 08BD     		pop	{r3, pc}	@
 195              	.L18:
 196              		.align	2
 197              	.L17:
 198 0010 00080140 		.word	1073809408
 200              		.section	.text.Blink,"ax",%progbits
 201              		.align	2
 202              		.global	Blink
 203              		.thumb
 204              		.thumb_func
 206              	Blink:
 207              		@ args = 0, pretend = 0, frame = 0
 208              		@ frame_needed = 0, uses_anonymous_args = 0
 209 0000 08B5     		push	{r3, lr}	@
 210 0002 4220     		movs	r0, #66	@,
 211 0004 FFF7FEFF 		bl	DEBUG_PutChar	@
 212 0008 0948     		ldr	r0, .L20	@,
 213 000a 4FF48051 		mov	r1, #4096	@,
 214 000e FFF7FEFF 		bl	GPIO_SetBits	@
 215 0012 084B     		ldr	r3, .L20+4	@ tmp111,
 216              	@ 66 "../src/utils.c" 1
 217 0014 1846     		   mov r0, r3          	@ tmp111
 218 0016 0138     		1: subs r0, #1            
 219 0018 FDD8     		   bhi 1b                 
 220              		
 221              	@ 0 "" 2
 222              		.thumb
 223 001a 0548     		ldr	r0, .L20	@,
 224 001c 4FF48051 		mov	r1, #4096	@,
 225 0020 FFF7FEFF 		bl	GPIO_ResetBits	@
 226 0024 034B     		ldr	r3, .L20+4	@ tmp113,
 227              	@ 66 "../src/utils.c" 1
 228 0026 1846     		   mov r0, r3          	@ tmp113
 229 0028 0138     		1: subs r0, #1            
 230 002a FDD8     		   bhi 1b                 
 231              		
 232              	@ 0 "" 2
 233              		.thumb
 234 002c 08BD     		pop	{r3, pc}	@
 235              	.L21:
 236 002e 00BF     		.align	2
 237              	.L20:
 238 0030 000C0140 		.word	1073810432
 239 0034 009F2400 		.word	2400000
 241              		.section	.text.Delay_us,"ax",%progbits
 242              		.align	2
 243              		.global	Delay_us
 244              		.thumb
 245              		.thumb_func
 247              	Delay_us:
 248              		@ args = 0, pretend = 0, frame = 0
 249              		@ frame_needed = 0, uses_anonymous_args = 0
 250              		@ link register save eliminated.
 251 0000 00EB4000 		add	r0, r0, r0, lsl #1	@, us, us, us,
 252 0004 8300     		lsls	r3, r0, #2	@ tmp115, us,
 253              	@ 66 "../src/utils.c" 1
 254 0006 1846     		   mov r0, r3          	@ tmp115
 255 0008 0138     		1: subs r0, #1            
 256 000a FDD8     		   bhi 1b                 
 257              		
 258              	@ 0 "" 2
 259              		.thumb
 260 000c 7047     		bx	lr	@
 262 000e 00BF     		.section	.text.Delay_ms,"ax",%progbits
 263              		.align	2
 264              		.global	Delay_ms
 265              		.thumb
 266              		.thumb_func
 268              	Delay_ms:
 269              		@ args = 0, pretend = 0, frame = 0
 270              		@ frame_needed = 0, uses_anonymous_args = 0
 271              		@ link register save eliminated.
 272 0000 42F6E063 		movw	r3, #12000	@ tmp113,
 273 0004 03FB00F3 		mul	r3, r3, r0	@ us, tmp113, ms
 274              	@ 66 "../src/utils.c" 1
 275 0008 1846     		   mov r0, r3          	@ us
 276 000a 0138     		1: subs r0, #1            
 277 000c FDD8     		   bhi 1b                 
 278              		
 279              	@ 0 "" 2
 280              		.thumb
 281 000e 7047     		bx	lr	@
 283              		.global	__aeabi_fmul
 284              		.section	.text.Rad2Deg,"ax",%progbits
 285              		.align	2
 286              		.global	Rad2Deg
 287              		.thumb
 288              		.thumb_func
 290              	Rad2Deg:
 291              		@ args = 0, pretend = 0, frame = 0
 292              		@ frame_needed = 0, uses_anonymous_args = 0
 293 0000 08B5     		push	{r3, lr}	@
 294 0002 0249     		ldr	r1, .L25	@,
 295 0004 FFF7FEFF 		bl	__aeabi_fmul	@
 296 0008 08BD     		pop	{r3, pc}	@
 297              	.L26:
 298 000a 00BF     		.align	2
 299              	.L25:
 300 000c E02E6542 		.word	1113927392
 302              		.section	.text.Deg2Rad,"ax",%progbits
 303              		.align	2
 304              		.global	Deg2Rad
 305              		.thumb
 306              		.thumb_func
 308              	Deg2Rad:
 309              		@ args = 0, pretend = 0, frame = 0
 310              		@ frame_needed = 0, uses_anonymous_args = 0
 311 0000 08B5     		push	{r3, lr}	@
 312 0002 0249     		ldr	r1, .L28	@,
 313 0004 FFF7FEFF 		bl	__aeabi_fmul	@
 314 0008 08BD     		pop	{r3, pc}	@
 315              	.L29:
 316 000a 00BF     		.align	2
 317              	.L28:
 318 000c 35FA8E3C 		.word	1016003125
 320              		.global	__aeabi_fcmpge
 321              		.global	__aeabi_fadd
 322              		.global	__aeabi_fsub
 323              		.section	.text.Round,"ax",%progbits
 324              		.align	2
 325              		.global	Round
 326              		.thumb
 327              		.thumb_func
 329              	Round:
 330              		@ args = 0, pretend = 0, frame = 0
 331              		@ frame_needed = 0, uses_anonymous_args = 0
 332 0000 10B5     		push	{r4, lr}	@
 333 0002 0021     		movs	r1, #0	@,
 334 0004 0446     		mov	r4, r0	@ x, x
 335 0006 FFF7FEFF 		bl	__aeabi_fcmpge	@
 336 000a 28B1     		cbz	r0, .L35	@,
 337 000c 2046     		mov	r0, r4	@, x
 338 000e 4FF07C51 		mov	r1, #1056964608	@,
 339 0012 FFF7FEFF 		bl	__aeabi_fadd	@
 340 0016 10BD     		pop	{r4, pc}	@
 341              	.L35:
 342 0018 2046     		mov	r0, r4	@, x
 343 001a 4FF07C51 		mov	r1, #1056964608	@,
 344 001e FFF7FEFF 		bl	__aeabi_fsub	@
 345 0022 10BD     		pop	{r4, pc}	@
 347              		.ident	"GCC: (GNU Tools for ARM Embedded Processors) 4.8.3 20131129 (release) [ARM/embedded-4_8-br